target datalayout = "e-m:e-p270:32:32-p271:32:32-p272:64:64-i64:64-i128:128-f80:128-n8:16:32:64-S128"
target triple = "x86_64-pc-linux-gnu"

%struct.rb_data_type_struct = type { ptr, %struct.anon, ptr, ptr, i64 }
%struct.anon = type { ptr, ptr, ptr, ptr, [1 x ptr] }
%struct.RTypedData = type { %struct.RBasic, ptr, i64, ptr }
%struct.RBasic = type { i64, i64 }

@cPKCS7 = internal global i64 0, align 8
@ossl_pkcs7_type = internal constant %struct.rb_data_type_struct { ptr @.str.53, %struct.anon { ptr null, ptr @ossl_pkcs7_free, ptr null, ptr null, [1 x ptr] zeroinitializer }, ptr null, ptr null, i64 33 }, align 8
@ePKCS7Error = internal global i64 0, align 8
@.str = private unnamed_addr constant [10 x i8] c"PKCS7_dup\00", align 1
@rb_eRuntimeError = external global i64, align 8
@.str.1 = private unnamed_addr constant [26 x i8] c"PKCS7 wasn't initialized.\00", align 1

; Function Attrs: nounwind sspstrong uwtable
define i64 @ossl_pkcs7_new(ptr noundef %0) #0 {
  %2 = alloca ptr, align 8
  %3 = alloca ptr, align 8
  %4 = alloca i64, align 8
  store ptr %0, ptr %2, align 8, !tbaa !6
  call void @llvm.lifetime.start.p0(i64 8, ptr %3) #16
  call void @llvm.lifetime.start.p0(i64 8, ptr %4) #16
  %5 = load i64, ptr @cPKCS7, align 8, !tbaa !11
  %6 = call i64 @rb_data_typed_object_wrap(i64 noundef %5, ptr noundef null, ptr noundef @ossl_pkcs7_type)
  store i64 %6, ptr %4, align 8, !tbaa !11
  %7 = load ptr, ptr %2, align 8, !tbaa !6
  %8 = call ptr @PKCS7_dup(ptr noundef %7)
  store ptr %8, ptr %3, align 8, !tbaa !6
  %9 = load ptr, ptr %3, align 8, !tbaa !6
  %10 = icmp ne ptr %9, null
  br i1 %10, label %13, label %11

11:                                               ; preds = %1
  %12 = load i64, ptr @ePKCS7Error, align 8, !tbaa !11
  call void (i64, ptr, ...) @ossl_raise(i64 noundef %12, ptr noundef @.str) #17
  unreachable

13:                                               ; preds = %1
  br label %14

14:                                               ; preds = %13
  %15 = load ptr, ptr %3, align 8, !tbaa !6
  %16 = icmp ne ptr %15, null
  br i1 %16, label %19, label %17

17:                                               ; preds = %14
  %18 = load i64, ptr @rb_eRuntimeError, align 8, !tbaa !11
  call void (i64, ptr, ...) @ossl_raise(i64 noundef %18, ptr noundef @.str.1) #17
  unreachable

19:                                               ; preds = %14
  %20 = load ptr, ptr %3, align 8, !tbaa !6
  %21 = load i64, ptr %4, align 8, !tbaa !11
  %22 = inttoptr i64 %21 to ptr
  %23 = getelementptr inbounds nuw %struct.RTypedData, ptr %22, i32 0, i32 3
  store ptr %20, ptr %23, align 8, !tbaa !13
  br label %24

24:                                               ; preds = %19
  br label %25

25:                                               ; preds = %24
  %26 = load i64, ptr %4, align 8, !tbaa !11
  call void @llvm.lifetime.end.p0(i64 8, ptr %4) #16
  call void @llvm.lifetime.end.p0(i64 8, ptr %3) #16
  ret i64 %26
}