; Function Attrs: nounwind sspstrong uwtable
define i64 @ossl_pkcs7_new(ptr noundef %0) local_unnamed_addr #0 {
  %2 = load i64, ptr @cPKCS7, align 8, !tbaa !6
  %3 = tail call i64 @rb_data_typed_object_wrap(i64 noundef %2, ptr noundef null, ptr noundef nonnull @ossl_pkcs7_type) #5
  %4 = tail call ptr @PKCS7_dup(ptr noundef %0) #5
  %.not = icmp eq ptr %4, null
  br i1 %.not, label %5, label %7

5:                                                ; preds = %1
  %6 = load i64, ptr @ePKCS7Error, align 8, !tbaa !6
  tail call void (i64, ptr, ...) @ossl_raise(i64 noundef %6, ptr noundef nonnull @.str) #6
  unreachable

7:                                                ; preds = %1
  %8 = inttoptr i64 %3 to ptr
  %9 = getelementptr inbounds nuw i8, ptr %8, i64 32
  store ptr %4, ptr %9, align 8, !tbaa !10
  ret i64 %3
}